; ModuleID = '14/1278.c'
source_filename = "14/1278.c"
target datalayout = "e-m:e-p270:32:32-p271:32:32-p272:64:64-i64:64-f80:128-n8:16:32:64-S128"
target triple = "x86_64-pc-linux-gnu"

%struct.a = type { i32, i32, i32 }

@.str = private unnamed_addr constant [3 x i8] c"%d\00", align 1
@.str.1 = private unnamed_addr constant [7 x i8] c"%d%d%d\00", align 1
@.str.2 = private unnamed_addr constant [7 x i8] c"%d %d\0A\00", align 1

; Function Attrs: noinline nounwind uwtable
define dso_local i32 @main() #0 {
  %1 = alloca i32, align 4
  %2 = alloca [100000 x %struct.a], align 16
  %3 = alloca %struct.a, align 4
  %4 = alloca [100000 x i32], align 16
  %5 = alloca i32, align 4
  %6 = alloca i32, align 4
  %7 = alloca i32, align 4
  %8 = alloca i32, align 4
  %9 = alloca i32, align 4
  store i32 0, i32* %1, align 4
  %10 = call i32 (i8*, ...) @__isoc99_scanf(i8* getelementptr inbounds ([3 x i8], [3 x i8]* @.str, i64 0, i64 0), i32* %5)
  store i32 0, i32* %6, align 4
  br label %11

11:                                               ; preds = %29, %0
  %12 = load i32, i32* %6, align 4
  %13 = load i32, i32* %5, align 4
  %14 = icmp slt i32 %12, %13
  br i1 %14, label %15, label %32

15:                                               ; preds = %11
  %16 = load i32, i32* %6, align 4
  %17 = sext i32 %16 to i64
  %18 = getelementptr inbounds [100000 x %struct.a], [100000 x %struct.a]* %2, i64 0, i64 %17
  %19 = getelementptr inbounds %struct.a, %struct.a* %18, i32 0, i32 0
  %20 = load i32, i32* %6, align 4
  %21 = sext i32 %20 to i64
  %22 = getelementptr inbounds [100000 x %struct.a], [100000 x %struct.a]* %2, i64 0, i64 %21
  %23 = getelementptr inbounds %struct.a, %struct.a* %22, i32 0, i32 1
  %24 = load i32, i32* %6, align 4
  %25 = sext i32 %24 to i64
  %26 = getelementptr inbounds [100000 x %struct.a], [100000 x %struct.a]* %2, i64 0, i64 %25
  %27 = getelementptr inbounds %struct.a, %struct.a* %26, i32 0, i32 2
  %28 = call i32 (i8*, ...) @__isoc99_scanf(i8* getelementptr inbounds ([7 x i8], [7 x i8]* @.str.1, i64 0, i64 0), i32* %19, i32* %23, i32* %27)
  br label %29

29:                                               ; preds = %15
  %30 = load i32, i32* %6, align 4
  %31 = add nsw i32 %30, 1
  store i32 %31, i32* %6, align 4
  br label %11

32:                                               ; preds = %11
  store i32 0, i32* %6, align 4
  br label %33

33:                                               ; preds = %52, %32
  %34 = load i32, i32* %6, align 4
  %35 = load i32, i32* %5, align 4
  %36 = icmp slt i32 %34, %35
  br i1 %36, label %37, label %55

37:                                               ; preds = %33
  %38 = load i32, i32* %6, align 4
  %39 = sext i32 %38 to i64
  %40 = getelementptr inbounds [100000 x %struct.a], [100000 x %struct.a]* %2, i64 0, i64 %39
  %41 = getelementptr inbounds %struct.a, %struct.a* %40, i32 0, i32 1
  %42 = load i32, i32* %41, align 4
  %43 = load i32, i32* %6, align 4
  %44 = sext i32 %43 to i64
  %45 = getelementptr inbounds [100000 x %struct.a], [100000 x %struct.a]* %2, i64 0, i64 %44
  %46 = getelementptr inbounds %struct.a, %struct.a* %45, i32 0, i32 2
  %47 = load i32, i32* %46, align 4
  %48 = add nsw i32 %42, %47
  %49 = load i32, i32* %6, align 4
  %50 = sext i32 %49 to i64
  %51 = getelementptr inbounds [100000 x i32], [100000 x i32]* %4, i64 0, i64 %50
  store i32 %48, i32* %51, align 4
  br label %52

52:                                               ; preds = %37
  %53 = load i32, i32* %6, align 4
  %54 = add nsw i32 %53, 1
  store i32 %54, i32* %6, align 4
  br label %33

55:                                               ; preds = %33
  store i32 0, i32* %8, align 4
  br label %56

56:                                               ; preds = %126, %55
  %57 = load i32, i32* %8, align 4
  %58 = icmp slt i32 %57, 3
  br i1 %58, label %59, label %129

59:                                               ; preds = %56
  %60 = load i32, i32* %8, align 4
  %61 = add nsw i32 %60, 1
  store i32 %61, i32* %6, align 4
  br label %62

62:                                               ; preds = %111, %59
  %63 = load i32, i32* %6, align 4
  %64 = load i32, i32* %5, align 4
  %65 = icmp slt i32 %63, %64
  br i1 %65, label %66, label %114

66:                                               ; preds = %62
  %67 = load i32, i32* %6, align 4
  %68 = sext i32 %67 to i64
  %69 = getelementptr inbounds [100000 x i32], [100000 x i32]* %4, i64 0, i64 %68
  %70 = load i32, i32* %69, align 4
  %71 = load i32, i32* %8, align 4
  %72 = sext i32 %71 to i64
  %73 = getelementptr inbounds [100000 x i32], [100000 x i32]* %4, i64 0, i64 %72
  %74 = load i32, i32* %73, align 4
  %75 = icmp sgt i32 %70, %74
  br i1 %75, label %76, label %110

76:                                               ; preds = %66
  %77 = load i32, i32* %8, align 4
  %78 = sext i32 %77 to i64
  %79 = getelementptr inbounds [100000 x i32], [100000 x i32]* %4, i64 0, i64 %78
  %80 = load i32, i32* %79, align 4
  store i32 %80, i32* %9, align 4
  %81 = load i32, i32* %6, align 4
  %82 = sext i32 %81 to i64
  %83 = getelementptr inbounds [100000 x i32], [100000 x i32]* %4, i64 0, i64 %82
  %84 = load i32, i32* %83, align 4
  %85 = load i32, i32* %8, align 4
  %86 = sext i32 %85 to i64
  %87 = getelementptr inbounds [100000 x i32], [100000 x i32]* %4, i64 0, i64 %86
  store i32 %84, i32* %87, align 4
  %88 = load i32, i32* %9, align 4
  %89 = load i32, i32* %6, align 4
  %90 = sext i32 %89 to i64
  %91 = getelementptr inbounds [100000 x i32], [100000 x i32]* %4, i64 0, i64 %90
  store i32 %88, i32* %91, align 4
  %92 = load i32, i32* %8, align 4
  %93 = sext i32 %92 to i64
  %94 = getelementptr inbounds [100000 x %struct.a], [100000 x %struct.a]* %2, i64 0, i64 %93
  %95 = bitcast %struct.a* %3 to i8*
  %96 = bitcast %struct.a* %94 to i8*
  call void @llvm.memcpy.p0i8.p0i8.i64(i8* align 4 %95, i8* align 4 %96, i64 12, i1 false)
  %97 = load i32, i32* %8, align 4
  %98 = sext i32 %97 to i64
  %99 = getelementptr inbounds [100000 x %struct.a], [100000 x %struct.a]* %2, i64 0, i64 %98
  %100 = load i32, i32* %6, align 4
  %101 = sext i32 %100 to i64
  %102 = getelementptr inbounds [100000 x %struct.a], [100000 x %struct.a]* %2, i64 0, i64 %101
  %103 = bitcast %struct.a* %99 to i8*
  %104 = bitcast %struct.a* %102 to i8*
  call void @llvm.memcpy.p0i8.p0i8.i64(i8* align 4 %103, i8* align 4 %104, i64 12, i1 false)
  %105 = load i32, i32* %6, align 4
  %106 = sext i32 %105 to i64
  %107 = getelementptr inbounds [100000 x %struct.a], [100000 x %struct.a]* %2, i64 0, i64 %106
  %108 = bitcast %struct.a* %107 to i8*
  %109 = bitcast %struct.a* %3 to i8*
  call void @llvm.memcpy.p0i8.p0i8.i64(i8* align 4 %108, i8* align 4 %109, i64 12, i1 false)
  br label %110

110:                                              ; preds = %76, %66
  br label %111

111:                                              ; preds = %110
  %112 = load i32, i32* %6, align 4
  %113 = add nsw i32 %112, 1
  store i32 %113, i32* %6, align 4
  br label %62

114:                                              ; preds = %62
  %115 = load i32, i32* %8, align 4
  %116 = sext i32 %115 to i64
  %117 = getelementptr inbounds [100000 x %struct.a], [100000 x %struct.a]* %2, i64 0, i64 %116
  %118 = getelementptr inbounds %struct.a, %struct.a* %117, i32 0, i32 0
  %119 = load i32, i32* %118, align 4
  store i32 %119, i32* %7, align 4
  %120 = load i32, i32* %7, align 4
  %121 = load i32, i32* %8, align 4
  %122 = sext i32 %121 to i64
  %123 = getelementptr inbounds [100000 x i32], [100000 x i32]* %4, i64 0, i64 %122
  %124 = load i32, i32* %123, align 4
  %125 = call i32 (i8*, ...) @printf(i8* getelementptr inbounds ([7 x i8], [7 x i8]* @.str.2, i64 0, i64 0), i32 %120, i32 %124)
  br label %126

126:                                              ; preds = %114
  %127 = load i32, i32* %8, align 4
  %128 = add nsw i32 %127, 1
  store i32 %128, i32* %8, align 4
  br label %56

129:                                              ; preds = %56
  ret i32 0
}

declare dso_local i32 @__isoc99_scanf(i8*, ...) #1

; Function Attrs: argmemonly nounwind willreturn
declare void @llvm.memcpy.p0i8.p0i8.i64(i8* noalias nocapture writeonly, i8* noalias nocapture readonly, i64, i1 immarg) #2

declare dso_local i32 @printf(i8*, ...) #1


!llvm.module.flags = !{!0}
!llvm.ident = !{!1}

!0 = !{i32 1, !"wchar_size", i32 4}
!1 = !{!"clang version 10.0.0-4ubuntu1 "}
